#include <math.h>
#include <stdio.h>
#include <stdlib.h>
#include <string.h>

void main()
{
	unsigned int a[300],i=0,j,k=0,f=1,t,s;
	char c;
	scanf("%d",&a[0]);

	while(c=getchar()!='\n')
	{
		i++;
		scanf("%d",&a[i]);
	}
	if(i==0)
	{
		printf("No\n");
		f=0;
	}
	else
	{
		for(j=1;j<=i;j++)
		{
			if(a[j]==a[0])
				k++;
		}
		if(k==i)
		{printf("No\n");
		f=0;}
	}
	if(f)
	{
		t=a[0];
		
		for(j=0;j<=i;j++)
			if(a[j]>t)
			{
				t=a[j];
			}
		s=0;
		for(j=0;j<=i;j++)
			if(a[j]>s&&a[j]!=t)
				s=a[j];
	
	printf("%d\n",s);
	}	
}