; ModuleID = '22/57.c'
source_filename = "22/57.c"
target datalayout = "e-m:e-p270:32:32-p271:32:32-p272:64:64-i64:64-f80:128-n8:16:32:64-S128"
target triple = "x86_64-pc-linux-gnu"

@.str = private unnamed_addr constant [3 x i8] c"%d\00", align 1
@.str.1 = private unnamed_addr constant [4 x i8] c"No\0A\00", align 1
@.str.2 = private unnamed_addr constant [4 x i8] c"%d\0A\00", align 1

; Function Attrs: noinline nounwind uwtable
define dso_local void @main() #0 {
  %1 = alloca [300 x i32], align 16
  %2 = alloca i32, align 4
  %3 = alloca i32, align 4
  %4 = alloca i32, align 4
  %5 = alloca i32, align 4
  %6 = alloca i32, align 4
  %7 = alloca i32, align 4
  %8 = alloca i8, align 1
  store i32 0, i32* %2, align 4
  store i32 0, i32* %4, align 4
  store i32 1, i32* %5, align 4
  %9 = getelementptr inbounds [300 x i32], [300 x i32]* %1, i64 0, i64 0
  %10 = call i32 (i8*, ...) @__isoc99_scanf(i8* getelementptr inbounds ([3 x i8], [3 x i8]* @.str, i64 0, i64 0), i32* %9)
  br label %11

11:                                               ; preds = %17, %0
  %12 = call i32 @getchar()
  %13 = icmp ne i32 %12, 10
  %14 = zext i1 %13 to i32
  %15 = trunc i32 %14 to i8
  store i8 %15, i8* %8, align 1
  %16 = icmp ne i8 %15, 0
  br i1 %16, label %17, label %24

17:                                               ; preds = %11
  %18 = load i32, i32* %2, align 4
  %19 = add i32 %18, 1
  store i32 %19, i32* %2, align 4
  %20 = load i32, i32* %2, align 4
  %21 = zext i32 %20 to i64
  %22 = getelementptr inbounds [300 x i32], [300 x i32]* %1, i64 0, i64 %21
  %23 = call i32 (i8*, ...) @__isoc99_scanf(i8* getelementptr inbounds ([3 x i8], [3 x i8]* @.str, i64 0, i64 0), i32* %22)
  br label %11

24:                                               ; preds = %11
  %25 = load i32, i32* %2, align 4
  %26 = icmp eq i32 %25, 0
  br i1 %26, label %27, label %29

27:                                               ; preds = %24
  %28 = call i32 (i8*, ...) @printf(i8* getelementptr inbounds ([4 x i8], [4 x i8]* @.str.1, i64 0, i64 0))
  store i32 0, i32* %5, align 4
  br label %56

29:                                               ; preds = %24
  store i32 1, i32* %3, align 4
  br label %30

30:                                               ; preds = %46, %29
  %31 = load i32, i32* %3, align 4
  %32 = load i32, i32* %2, align 4
  %33 = icmp ule i32 %31, %32
  br i1 %33, label %34, label %49

34:                                               ; preds = %30
  %35 = load i32, i32* %3, align 4
  %36 = zext i32 %35 to i64
  %37 = getelementptr inbounds [300 x i32], [300 x i32]* %1, i64 0, i64 %36
  %38 = load i32, i32* %37, align 4
  %39 = getelementptr inbounds [300 x i32], [300 x i32]* %1, i64 0, i64 0
  %40 = load i32, i32* %39, align 16
  %41 = icmp eq i32 %38, %40
  br i1 %41, label %42, label %45

42:                                               ; preds = %34
  %43 = load i32, i32* %4, align 4
  %44 = add i32 %43, 1
  store i32 %44, i32* %4, align 4
  br label %45

45:                                               ; preds = %42, %34
  br label %46

46:                                               ; preds = %45
  %47 = load i32, i32* %3, align 4
  %48 = add i32 %47, 1
  store i32 %48, i32* %3, align 4
  br label %30

49:                                               ; preds = %30
  %50 = load i32, i32* %4, align 4
  %51 = load i32, i32* %2, align 4
  %52 = icmp eq i32 %50, %51
  br i1 %52, label %53, label %55

53:                                               ; preds = %49
  %54 = call i32 (i8*, ...) @printf(i8* getelementptr inbounds ([4 x i8], [4 x i8]* @.str.1, i64 0, i64 0))
  store i32 0, i32* %5, align 4
  br label %55

55:                                               ; preds = %53, %49
  br label %56

56:                                               ; preds = %55, %27
  %57 = load i32, i32* %5, align 4
  %58 = icmp ne i32 %57, 0
  br i1 %58, label %59, label %113

59:                                               ; preds = %56
  %60 = getelementptr inbounds [300 x i32], [300 x i32]* %1, i64 0, i64 0
  %61 = load i32, i32* %60, align 16
  store i32 %61, i32* %6, align 4
  store i32 0, i32* %3, align 4
  br label %62

62:                                               ; preds = %79, %59
  %63 = load i32, i32* %3, align 4
  %64 = load i32, i32* %2, align 4
  %65 = icmp ule i32 %63, %64
  br i1 %65, label %66, label %82

66:                                               ; preds = %62
  %67 = load i32, i32* %3, align 4
  %68 = zext i32 %67 to i64
  %69 = getelementptr inbounds [300 x i32], [300 x i32]* %1, i64 0, i64 %68
  %70 = load i32, i32* %69, align 4
  %71 = load i32, i32* %6, align 4
  %72 = icmp ugt i32 %70, %71
  br i1 %72, label %73, label %78

73:                                               ; preds = %66
  %74 = load i32, i32* %3, align 4
  %75 = zext i32 %74 to i64
  %76 = getelementptr inbounds [300 x i32], [300 x i32]* %1, i64 0, i64 %75
  %77 = load i32, i32* %76, align 4
  store i32 %77, i32* %6, align 4
  br label %78

78:                                               ; preds = %73, %66
  br label %79

79:                                               ; preds = %78
  %80 = load i32, i32* %3, align 4
  %81 = add i32 %80, 1
  store i32 %81, i32* %3, align 4
  br label %62

82:                                               ; preds = %62
  store i32 0, i32* %7, align 4
  store i32 0, i32* %3, align 4
  br label %83

83:                                               ; preds = %107, %82
  %84 = load i32, i32* %3, align 4
  %85 = load i32, i32* %2, align 4
  %86 = icmp ule i32 %84, %85
  br i1 %86, label %87, label %110

87:                                               ; preds = %83
  %88 = load i32, i32* %3, align 4
  %89 = zext i32 %88 to i64
  %90 = getelementptr inbounds [300 x i32], [300 x i32]* %1, i64 0, i64 %89
  %91 = load i32, i32* %90, align 4
  %92 = load i32, i32* %7, align 4
  %93 = icmp ugt i32 %91, %92
  br i1 %93, label %94, label %106

94:                                               ; preds = %87
  %95 = load i32, i32* %3, align 4
  %96 = zext i32 %95 to i64
  %97 = getelementptr inbounds [300 x i32], [300 x i32]* %1, i64 0, i64 %96
  %98 = load i32, i32* %97, align 4
  %99 = load i32, i32* %6, align 4
  %100 = icmp ne i32 %98, %99
  br i1 %100, label %101, label %106

101:                                              ; preds = %94
  %102 = load i32, i32* %3, align 4
  %103 = zext i32 %102 to i64
  %104 = getelementptr inbounds [300 x i32], [300 x i32]* %1, i64 0, i64 %103
  %105 = load i32, i32* %104, align 4
  store i32 %105, i32* %7, align 4
  br label %106

106:                                              ; preds = %101, %94, %87
  br label %107

107:                                              ; preds = %106
  %108 = load i32, i32* %3, align 4
  %109 = add i32 %108, 1
  store i32 %109, i32* %3, align 4
  br label %83

110:                                              ; preds = %83
  %111 = load i32, i32* %7, align 4
  %112 = call i32 (i8*, ...) @printf(i8* getelementptr inbounds ([4 x i8], [4 x i8]* @.str.2, i64 0, i64 0), i32 %111)
  br label %113

113:                                              ; preds = %110, %56
  ret void
}

declare dso_local i32 @__isoc99_scanf(i8*, ...) #1

declare dso_local i32 @getchar() #1

declare dso_local i32 @printf(i8*, ...) #1


!llvm.module.flags = !{!0}
!llvm.ident = !{!1}

!0 = !{i32 1, !"wchar_size", i32 4}
!1 = !{!"clang version 10.0.0-4ubuntu1 "}
