; ModuleID = 'source-C-CXX/21/57.c'
source_filename = "source-C-CXX/21/57.c"
target datalayout = "e-m:e-p270:32:32-p271:32:32-p272:64:64-i64:64-f80:128-n8:16:32:64-S128"
target triple = "x86_64-pc-linux-gnu"

%struct._IO_FILE = type { i32, i8*, i8*, i8*, i8*, i8*, i8*, i8*, i8*, i8*, i8*, i8*, %struct._IO_marker*, %struct._IO_FILE*, i32, i32, i64, i16, i8, [1 x i8], i8*, i64, %struct._IO_codecvt*, %struct._IO_wide_data*, %struct._IO_FILE*, i8*, i64, i32, [20 x i8] }
%struct._IO_marker = type opaque
%struct._IO_codecvt = type opaque
%struct._IO_wide_data = type opaque

@.str = private unnamed_addr constant [3 x i8] c"%d\00", align 1
@.str.2 = private unnamed_addr constant [4 x i8] c"%d\0A\00", align 1
@stdin = external local_unnamed_addr global %struct._IO_FILE*, align 8
@str.3 = private unnamed_addr constant [3 x i8] c"No\00", align 1

; Function Attrs: nofree nounwind sspstrong uwtable
define dso_local void @main() local_unnamed_addr #0 {
  %1 = alloca [300 x i32], align 16
  %2 = bitcast [300 x i32]* %1 to i8*
  call void @llvm.lifetime.start.p0i8(i64 1200, i8* nonnull %2) #4
  %3 = getelementptr inbounds [300 x i32], [300 x i32]* %1, i64 0, i64 0
  %4 = call i32 (i8*, ...) @__isoc99_scanf(i8* getelementptr inbounds ([3 x i8], [3 x i8]* @.str, i64 0, i64 0), i32* nonnull %3)
  %5 = load %struct._IO_FILE*, %struct._IO_FILE** @stdin, align 8, !tbaa !5
  %6 = call i32 @getc(%struct._IO_FILE* %5) #4
  %7 = icmp eq i32 %6, 10
  br i1 %7, label %21, label %8

8:                                                ; preds = %0, %8
  %9 = phi i32 [ %10, %8 ], [ 0, %0 ]
  %10 = add i32 %9, 1
  %11 = zext i32 %10 to i64
  %12 = getelementptr inbounds [300 x i32], [300 x i32]* %1, i64 0, i64 %11
  %13 = call i32 (i8*, ...) @__isoc99_scanf(i8* getelementptr inbounds ([3 x i8], [3 x i8]* @.str, i64 0, i64 0), i32* nonnull %12)
  %14 = load %struct._IO_FILE*, %struct._IO_FILE** @stdin, align 8, !tbaa !5
  %15 = call i32 @getc(%struct._IO_FILE* %14) #4
  %16 = icmp eq i32 %15, 10
  br i1 %16, label %17, label %8, !llvm.loop !9

17:                                               ; preds = %8
  %18 = icmp eq i32 %10, 0
  br i1 %18, label %21, label %19

19:                                               ; preds = %17
  %20 = load i32, i32* %3, align 16
  br label %23

21:                                               ; preds = %0, %17
  %22 = call i32 @puts(i8* nonnull dereferenceable(1) getelementptr inbounds ([3 x i8], [3 x i8]* @str.3, i64 0, i64 0))
  br label %67

23:                                               ; preds = %19, %23
  %24 = phi i32 [ %31, %23 ], [ 0, %19 ]
  %25 = phi i32 [ %32, %23 ], [ 1, %19 ]
  %26 = zext i32 %25 to i64
  %27 = getelementptr inbounds [300 x i32], [300 x i32]* %1, i64 0, i64 %26
  %28 = load i32, i32* %27, align 4, !tbaa !11
  %29 = icmp eq i32 %28, %20
  %30 = zext i1 %29 to i32
  %31 = add i32 %24, %30
  %32 = add i32 %25, 1
  %33 = icmp ugt i32 %32, %10
  br i1 %33, label %34, label %23, !llvm.loop !13

34:                                               ; preds = %23
  %35 = icmp eq i32 %31, %10
  br i1 %35, label %36, label %43

36:                                               ; preds = %34
  %37 = call i32 @puts(i8* nonnull dereferenceable(1) getelementptr inbounds ([3 x i8], [3 x i8]* @str.3, i64 0, i64 0))
  br label %67

38:                                               ; preds = %43
  %39 = icmp eq i32 %20, 0
  %40 = icmp eq i32 %20, %50
  %41 = select i1 %39, i1 true, i1 %40
  %42 = select i1 %41, i32 0, i32 %20
  br label %53

43:                                               ; preds = %34, %43
  %44 = phi i32 [ %51, %43 ], [ 1, %34 ]
  %45 = phi i32 [ %50, %43 ], [ %20, %34 ]
  %46 = zext i32 %44 to i64
  %47 = getelementptr inbounds [300 x i32], [300 x i32]* %1, i64 0, i64 %46
  %48 = load i32, i32* %47, align 4, !tbaa !11
  %49 = icmp ugt i32 %48, %45
  %50 = select i1 %49, i32 %48, i32 %45
  %51 = add i32 %44, 1
  %52 = icmp ugt i32 %51, %10
  br i1 %52, label %38, label %43, !llvm.loop !14

53:                                               ; preds = %38, %53
  %54 = phi i32 [ 1, %38 ], [ %63, %53 ]
  %55 = phi i32 [ %42, %38 ], [ %62, %53 ]
  %56 = zext i32 %54 to i64
  %57 = getelementptr inbounds [300 x i32], [300 x i32]* %1, i64 0, i64 %56
  %58 = load i32, i32* %57, align 4, !tbaa !11
  %59 = icmp ule i32 %58, %55
  %60 = icmp eq i32 %58, %50
  %61 = select i1 %59, i1 true, i1 %60
  %62 = select i1 %61, i32 %55, i32 %58
  %63 = add i32 %54, 1
  %64 = icmp ugt i32 %63, %10
  br i1 %64, label %65, label %53, !llvm.loop !15

65:                                               ; preds = %53
  %66 = call i32 (i8*, ...) @printf(i8* nonnull dereferenceable(1) getelementptr inbounds ([4 x i8], [4 x i8]* @.str.2, i64 0, i64 0), i32 %62)
  br label %67

67:                                               ; preds = %21, %36, %65
  call void @llvm.lifetime.end.p0i8(i64 1200, i8* nonnull %2) #4
  ret void
}

; Function Attrs: argmemonly mustprogress nofree nosync nounwind willreturn
declare void @llvm.lifetime.start.p0i8(i64 immarg, i8* nocapture) #1

; Function Attrs: nofree nounwind
declare noundef i32 @__isoc99_scanf(i8* nocapture noundef readonly, ...) local_unnamed_addr #2

; Function Attrs: nofree nounwind
declare noundef i32 @printf(i8* nocapture noundef readonly, ...) local_unnamed_addr #2

; Function Attrs: argmemonly mustprogress nofree nosync nounwind willreturn
declare void @llvm.lifetime.end.p0i8(i64 immarg, i8* nocapture) #1

; Function Attrs: nofree nounwind
declare noundef i32 @getc(%struct._IO_FILE* nocapture noundef) local_unnamed_addr #2

; Function Attrs: nofree nounwind
declare noundef i32 @puts(i8* nocapture noundef readonly) local_unnamed_addr #3


!llvm.module.flags = !{!0, !1, !2, !3}
!llvm.ident = !{!4}

!0 = !{i32 1, !"wchar_size", i32 4}
!1 = !{i32 7, !"PIC Level", i32 2}
!2 = !{i32 7, !"PIE Level", i32 2}
!3 = !{i32 7, !"uwtable", i32 1}
!4 = !{!"clang version 13.0.0"}
!5 = !{!6, !6, i64 0}
!6 = !{!"any pointer", !7, i64 0}
!7 = !{!"omnipotent char", !8, i64 0}
!8 = !{!"Simple C/C++ TBAA"}
!9 = distinct !{!9, !10}
!10 = !{!"llvm.loop.mustprogress"}
!11 = !{!12, !12, i64 0}
!12 = !{!"int", !7, i64 0}
!13 = distinct !{!13, !10}
!14 = distinct !{!14, !10}
!15 = distinct !{!15, !10}
